target datalayout = "e-m:e-p270:32:32-p271:32:32-p272:64:64-i64:64-i128:128-f80:128-n8:16:32:64-S128"
target triple = "x86_64-pc-linux-gnu"

%struct.redisServer = type { i32, i64, ptr, ptr, ptr, i32, i32, i32, i32, i32, ptr, ptr, ptr, ptr, ptr, i32, i32, i32, i32, i64, i32, i32, i32, i32, ptr, i32, i32, [41 x i8], i32, i64, i32, i32, i32, ptr, ptr, i32, i32, i64, ptr, ptr, ptr, ptr, [2 x i32], i32, i32, i32, i32, i32, i32, [16 x ptr], i32, ptr, ptr, i32, [8 x %struct.connListener], i32, %struct.connListener, ptr, ptr, ptr, ptr, ptr, ptr, ptr, ptr, ptr, ptr, i32, ptr, i32, ptr, [3 x %struct.pause_event], [256 x i8], ptr, i64, i32, i32, [128 x i32], i32, i32, i64, i32, i32, i32, i32, i32, i64, i64, i64, i64, i64, i64, i64, i64, i64, i64, double, i64, i64, i64, i64, i64, i64, i64, i64, i64, i64, i64, i64, i64, i64, i64, i64, i64, i64, i64, i64, i64, double, i64, i64, i64, i64, i64, ptr, i64, i64, i64, %struct.malloc_stats, i64, i64, i64, i64, i64, i64, i64, i64, i64, i64, i64, i64, double, [4 x i64], i64, i64, i64, i64, [128 x i64], [128 x i64], i64, i64, [7 x %struct.anon], i64, i64, i64, i64, i64, i64, [4 x %struct.durationStats], i32, i32, i32, i32, i32, i32, i32, i32, i32, i32, i32, i32, i64, i32, i32, i32, i32, i64, i64, i32, i32, i32, i32, i32, ptr, [3 x %struct.clientBufferLimitsConfig], i32, i32, i32, ptr, i32, i32, i32, i32, i32, i32, ptr, ptr, i32, i32, i64, i64, i64, i64, i64, i32, i32, ptr, i32, i32, i64, i64, i64, i64, i64, i32, i32, i64, i32, i32, i32, i32, i32, i32, i32, i32, ptr, i32, i64, i64, i64, i64, i32, ptr, i32, ptr, i32, i32, i32, i64, i64, i64, i64, i32, i32, i32, i32, i32, i32, ptr, i32, i32, ptr, i32, i32, i32, [2 x i32], i32, %struct.redisOpArray, i32, ptr, i32, ptr, i32, i32, i32, i32, i32, i32, i32, [41 x i8], [41 x i8], i64, i64, i64, i64, i32, i32, ptr, i64, i64, %struct.replDataBuf, i64, i64, i32, i32, i32, i32, i32, i32, i32, i32, i32, i64, ptr, i64, ptr, ptr, ptr, i32, i32, ptr, ptr, i32, i32, i32, i64, i64, i64, i64, ptr, ptr, i32, ptr, i64, i32, i32, i32, i64, i32, i32, i32, i32, ptr, i32, i32, [41 x i8], i64, i32, ptr, i32, i32, i64, i64, i32, i32, i32, i32, i32, i64, [3 x i32], i32, i32, i32, [10 x i32], ptr, ptr, i32, i64, ptr, ptr, i32, i32, i32, i32, i64, i64, i64, i64, i64, i64, i64, i64, i64, i64, i32, i32, i64, i64, i32, i64, i64, i64, i64, i64, ptr, ptr, i32, ptr, i32, i32, i32, i32, i64, i64, ptr, ptr, i32, i32, i32, i32, i32, ptr, ptr, ptr, i32, i32, i32, i32, i32, i32, i32, i64, i32, i32, i64, i32, i32, i32, i32, i32, i32, i32, i64, ptr, ptr, i64, ptr, i32, %struct.aclInfo, i32, i64, i32, i32, i32, %struct.redisTLSContextConfig, ptr, ptr, ptr, ptr, ptr, i64, i32, ptr, i32, i32, i32, i64, i32, ptr }
%struct.connListener = type { [16 x i32], i32, ptr, i32, i32, ptr, ptr }
%struct.pause_event = type { i32, i64 }
%struct.malloc_stats = type { i64, i64, i64, i64, i64, i64, i64, i64, i64, i64, i64 }
%struct.anon = type { i64, i64, [16 x i64], i32 }
%struct.durationStats = type { i64, i64, i64 }
%struct.clientBufferLimitsConfig = type { i64, i64, i64 }
%struct.redisOpArray = type { ptr, i32, i32 }
%struct.replDataBuf = type { ptr, i64, i64, i64, i64 }
%struct.aclInfo = type { i64, i64, i64, i64 }
%struct.redisTLSContextConfig = type { ptr, ptr, ptr, ptr, ptr, ptr, ptr, ptr, ptr, ptr, ptr, ptr, i32, i32, i32, i32 }

@server = external global %struct.redisServer, align 8
@.str.23 = private unnamed_addr constant [92 x i8] c"allocated=%zu, active=%zu, resident=%zu, frag=%.2f%% (%.2f%% rss), frag_bytes=%zu (%zu rss)\00", align 1

; Function Attrs: nounwind uwtable
define dso_local float @getAllocatorFragmentation(ptr noundef %0) #0 {
  %2 = alloca ptr, align 8
  %3 = alloca i64, align 8
  %4 = alloca i64, align 8
  %5 = alloca i64, align 8
  %6 = alloca i64, align 8
  %7 = alloca i64, align 8
  %8 = alloca i64, align 8
  %9 = alloca i64, align 8
  %10 = alloca i64, align 8
  %11 = alloca float, align 4
  %12 = alloca float, align 4
  %13 = alloca i64, align 8
  store ptr %0, ptr %2, align 8, !tbaa !111
  call void @llvm.lifetime.start.p0(i64 8, ptr %3) #10
  call void @llvm.lifetime.start.p0(i64 8, ptr %4) #10
  call void @llvm.lifetime.start.p0(i64 8, ptr %5) #10
  call void @llvm.lifetime.start.p0(i64 8, ptr %6) #10
  %14 = call i32 @zmalloc_get_allocator_info(i32 noundef 1, ptr noundef %5, ptr noundef %4, ptr noundef %3, ptr noundef null, ptr noundef null, ptr noundef %6)
  %15 = load i32, ptr getelementptr inbounds nuw (%struct.redisServer, ptr @server, i32 0, i32 403), align 4, !tbaa !179
  %16 = icmp ne i32 %15, -1
  br i1 %16, label %17, label %32

17:                                               ; preds = %1
  call void @llvm.lifetime.start.p0(i64 8, ptr %7) #10
  call void @llvm.lifetime.start.p0(i64 8, ptr %8) #10
  call void @llvm.lifetime.start.p0(i64 8, ptr %9) #10
  call void @llvm.lifetime.start.p0(i64 8, ptr %10) #10
  %18 = load i32, ptr getelementptr inbounds nuw (%struct.redisServer, ptr @server, i32 0, i32 403), align 4, !tbaa !179
  %19 = call i32 @zmalloc_get_allocator_info_by_arena(i32 noundef %18, i32 noundef 0, ptr noundef %9, ptr noundef %8, ptr noundef %7, ptr noundef %10)
  %20 = load i64, ptr %7, align 8, !tbaa !39
  %21 = load i64, ptr %3, align 8, !tbaa !39
  %22 = sub i64 %21, %20
  store i64 %22, ptr %3, align 8, !tbaa !39
  %23 = load i64, ptr %8, align 8, !tbaa !39
  %24 = load i64, ptr %4, align 8, !tbaa !39
  %25 = sub i64 %24, %23
  store i64 %25, ptr %4, align 8, !tbaa !39
  %26 = load i64, ptr %9, align 8, !tbaa !39
  %27 = load i64, ptr %5, align 8, !tbaa !39
  %28 = sub i64 %27, %26
  store i64 %28, ptr %5, align 8, !tbaa !39
  %29 = load i64, ptr %10, align 8, !tbaa !39
  %30 = load i64, ptr %6, align 8, !tbaa !39
  %31 = sub i64 %30, %29
  store i64 %31, ptr %6, align 8, !tbaa !39
  call void @llvm.lifetime.end.p0(i64 8, ptr %10) #10
  call void @llvm.lifetime.end.p0(i64 8, ptr %9) #10
  call void @llvm.lifetime.end.p0(i64 8, ptr %8) #10
  call void @llvm.lifetime.end.p0(i64 8, ptr %7) #10
  br label %32

32:                                               ; preds = %17, %1
  call void @llvm.lifetime.start.p0(i64 4, ptr %11) #10
  %33 = load i64, ptr %6, align 8, !tbaa !39
  %34 = uitofp i64 %33 to float
  %35 = load i64, ptr %5, align 8, !tbaa !39
  %36 = uitofp i64 %35 to float
  %37 = fdiv float %34, %36
  %38 = fmul float %37, 1.000000e+02
  store float %38, ptr %11, align 4, !tbaa !180
  call void @llvm.lifetime.start.p0(i64 4, ptr %12) #10
  %39 = load i64, ptr %3, align 8, !tbaa !39
  %40 = uitofp i64 %39 to float
  %41 = load i64, ptr %5, align 8, !tbaa !39
  %42 = uitofp i64 %41 to float
  %43 = fdiv float %40, %42
  %44 = call float @llvm.fmuladd.f32(float %43, float 1.000000e+02, float -1.000000e+02)
  store float %44, ptr %12, align 4, !tbaa !180
  call void @llvm.lifetime.start.p0(i64 8, ptr %13) #10
  %45 = load i64, ptr %3, align 8, !tbaa !39
  %46 = load i64, ptr %5, align 8, !tbaa !39
  %47 = sub i64 %45, %46
  store i64 %47, ptr %13, align 8, !tbaa !39
  %48 = load ptr, ptr %2, align 8, !tbaa !111
  %49 = icmp ne ptr %48, null
  br i1 %49, label %50, label %53

50:                                               ; preds = %32
  %51 = load i64, ptr %6, align 8, !tbaa !39
  %52 = load ptr, ptr %2, align 8, !tbaa !111
  store i64 %51, ptr %52, align 8, !tbaa !39
  br label %53

53:                                               ; preds = %50, %32
  br label %54

54:                                               ; preds = %53
  %55 = load i32, ptr getelementptr inbounds nuw (%struct.redisServer, ptr @server, i32 0, i32 159), align 8, !tbaa !182
  %56 = icmp slt i32 0, %55
  br i1 %56, label %57, label %58

57:                                               ; preds = %54
  br label %69

58:                                               ; preds = %54
  %59 = load i64, ptr %5, align 8, !tbaa !39
  %60 = load i64, ptr %4, align 8, !tbaa !39
  %61 = load i64, ptr %3, align 8, !tbaa !39
  %62 = load float, ptr %11, align 4, !tbaa !180
  %63 = fpext float %62 to double
  %64 = load float, ptr %12, align 4, !tbaa !180
  %65 = fpext float %64 to double
  %66 = load i64, ptr %6, align 8, !tbaa !39
  %67 = load i64, ptr %13, align 8, !tbaa !39
  call void (i32, ptr, ...) @_serverLog(i32 noundef 0, ptr noundef @.str.23, i64 noundef %59, i64 noundef %60, i64 noundef %61, double noundef %63, double noundef %65, i64 noundef %66, i64 noundef %67)
  br label %68

68:                                               ; preds = %58
  br label %69

69:                                               ; preds = %68, %57
  %70 = load float, ptr %11, align 4, !tbaa !180
  call void @llvm.lifetime.end.p0(i64 8, ptr %13) #10
  call void @llvm.lifetime.end.p0(i64 4, ptr %12) #10
  call void @llvm.lifetime.end.p0(i64 4, ptr %11) #10
  call void @llvm.lifetime.end.p0(i64 8, ptr %6) #10
  call void @llvm.lifetime.end.p0(i64 8, ptr %5) #10
  call void @llvm.lifetime.end.p0(i64 8, ptr %4) #10
  call void @llvm.lifetime.end.p0(i64 8, ptr %3) #10
  ret float %70
}