; Function Attrs: nounwind uwtable
define dso_local float @getAllocatorFragmentation(ptr noundef writeonly captures(address_is_null) %0) local_unnamed_addr #0 {
  %2 = alloca i64, align 8
  %3 = alloca i64, align 8
  %4 = alloca i64, align 8
  %5 = alloca i64, align 8
  %6 = alloca i64, align 8
  %7 = alloca i64, align 8
  %8 = alloca i64, align 8
  %9 = alloca i64, align 8
  call void @llvm.lifetime.start.p0(i64 8, ptr nonnull %2) #10
  call void @llvm.lifetime.start.p0(i64 8, ptr nonnull %3) #10
  call void @llvm.lifetime.start.p0(i64 8, ptr nonnull %4) #10
  call void @llvm.lifetime.start.p0(i64 8, ptr nonnull %5) #10
  %10 = call i32 @zmalloc_get_allocator_info(i32 noundef 1, ptr noundef nonnull %4, ptr noundef nonnull %3, ptr noundef nonnull %2, ptr noundef null, ptr noundef null, ptr noundef nonnull %5) #10
  %11 = load i32, ptr getelementptr inbounds nuw (i8, ptr @server, i64 8020), align 4, !tbaa !144
  %.not = icmp eq i32 %11, -1
  br i1 %.not, label %._crit_edge, label %12

._crit_edge:                                      ; preds = %1
  %.pre = load i64, ptr %5, align 8, !tbaa !94
  %.pre6 = load i64, ptr %4, align 8, !tbaa !94
  %.pre7 = load i64, ptr %2, align 8, !tbaa !94
  br label %26

12:                                               ; preds = %1
  call void @llvm.lifetime.start.p0(i64 8, ptr nonnull %6) #10
  call void @llvm.lifetime.start.p0(i64 8, ptr nonnull %7) #10
  call void @llvm.lifetime.start.p0(i64 8, ptr nonnull %8) #10
  call void @llvm.lifetime.start.p0(i64 8, ptr nonnull %9) #10
  %13 = call i32 @zmalloc_get_allocator_info_by_arena(i32 noundef %11, i32 noundef 0, ptr noundef nonnull %8, ptr noundef nonnull %7, ptr noundef nonnull %6, ptr noundef nonnull %9) #10
  %14 = load i64, ptr %6, align 8, !tbaa !94
  %15 = load i64, ptr %2, align 8, !tbaa !94
  %16 = sub i64 %15, %14
  store i64 %16, ptr %2, align 8, !tbaa !94
  %17 = load i64, ptr %7, align 8, !tbaa !94
  %18 = load i64, ptr %3, align 8, !tbaa !94
  %19 = sub i64 %18, %17
  store i64 %19, ptr %3, align 8, !tbaa !94
  %20 = load i64, ptr %8, align 8, !tbaa !94
  %21 = load i64, ptr %4, align 8, !tbaa !94
  %22 = sub i64 %21, %20
  store i64 %22, ptr %4, align 8, !tbaa !94
  %23 = load i64, ptr %9, align 8, !tbaa !94
  %24 = load i64, ptr %5, align 8, !tbaa !94
  %25 = sub i64 %24, %23
  store i64 %25, ptr %5, align 8, !tbaa !94
  call void @llvm.lifetime.end.p0(i64 8, ptr nonnull %9) #10
  call void @llvm.lifetime.end.p0(i64 8, ptr nonnull %8) #10
  call void @llvm.lifetime.end.p0(i64 8, ptr nonnull %7) #10
  call void @llvm.lifetime.end.p0(i64 8, ptr nonnull %6) #10
  br label %26

26:                                               ; preds = %._crit_edge, %12
  %27 = phi i64 [ %.pre7, %._crit_edge ], [ %16, %12 ]
  %28 = phi i64 [ %.pre6, %._crit_edge ], [ %22, %12 ]
  %29 = phi i64 [ %.pre, %._crit_edge ], [ %25, %12 ]
  %30 = uitofp i64 %29 to float
  %31 = uitofp i64 %28 to float
  %32 = fdiv float %30, %31
  %33 = fmul float %32, 1.000000e+02
  %34 = uitofp i64 %27 to float
  %35 = fdiv float %34, %31
  %36 = call float @llvm.fmuladd.f32(float %35, float 1.000000e+02, float -1.000000e+02)
  %37 = sub i64 %27, %28
  %.not5 = icmp eq ptr %0, null
  br i1 %.not5, label %39, label %38

38:                                               ; preds = %26
  store i64 %29, ptr %0, align 8, !tbaa !94
  br label %39

39:                                               ; preds = %26, %38
  %40 = load i32, ptr getelementptr inbounds nuw (i8, ptr @server, i64 6288), align 8, !tbaa !145
  %41 = icmp sgt i32 %40, 0
  br i1 %41, label %46, label %42

42:                                               ; preds = %39
  %43 = load i64, ptr %3, align 8, !tbaa !94
  %44 = fpext float %33 to double
  %45 = fpext float %36 to double
  call void (i32, ptr, ...) @_serverLog(i32 noundef 0, ptr noundef nonnull @.str.23, i64 noundef %28, i64 noundef %43, i64 noundef %27, double noundef %44, double noundef %45, i64 noundef %29, i64 noundef %37) #10
  br label %46

46:                                               ; preds = %39, %42
  call void @llvm.lifetime.end.p0(i64 8, ptr nonnull %5) #10
  call void @llvm.lifetime.end.p0(i64 8, ptr nonnull %4) #10
  call void @llvm.lifetime.end.p0(i64 8, ptr nonnull %3) #10
  call void @llvm.lifetime.end.p0(i64 8, ptr nonnull %2) #10
  ret float %33
}